ccopy_reg
_reconstructor
p0
(cn2txt.main
ProcessState
p1
c__builtin__
object
p2
Ntp3
Rp4
(dp5
S'chapter_detected'
p6
I01
sS'book_name'
p7
V\u7f8e\u4eba\u53d7\u8fb1\u8bb0(H)
p8
sS'chapter_list_url'
p9
Vhttp://www.51rouwen.net/book/7165/
p10
sS'chaper_link_detected'
p11
I01
sS'chapters'
p12
(lp13
(Vhttp://www.51rouwen.net/book/7165/762384.html
p14
V\u5206\u5377\u9605\u8bfb1
p15
tp16
a(Vhttp://www.51rouwen.net/book/7165/762385.html
p17
V\u5206\u5377\u9605\u8bfb2
p18
tp19
a(Vhttp://www.51rouwen.net/book/7165/762386.html
p20
V\u5206\u5377\u9605\u8bfb3
p21
tp22
a(Vhttp://www.51rouwen.net/book/7165/762387.html
p23
V\u5206\u5377\u9605\u8bfb4
p24
tp25
a(Vhttp://www.51rouwen.net/book/7165/762388.html
p26
V\u5206\u5377\u9605\u8bfb5
p27
tp28
a(Vhttp://www.51rouwen.net/book/7165/762389.html
p29
V\u5206\u5377\u9605\u8bfb6
p30
tp31
a(Vhttp://www.51rouwen.net/book/7165/762390.html
p32
V\u5206\u5377\u9605\u8bfb7
p33
tp34
a(Vhttp://www.51rouwen.net/book/7165/762391.html
p35
V\u5206\u5377\u9605\u8bfb8
p36
tp37
a(Vhttp://www.51rouwen.net/book/7165/762392.html
p38
V\u5206\u5377\u9605\u8bfb9
p39
tp40
a(Vhttp://www.51rouwen.net/book/7165/762393.html
p41
V\u5206\u5377\u9605\u8bfb10
p42
tp43
a(Vhttp://www.51rouwen.net/book/7165/762394.html
p44
V\u5206\u5377\u9605\u8bfb11
p45
tp46
a(Vhttp://www.51rouwen.net/book/7165/762395.html
p47
V\u5206\u5377\u9605\u8bfb12
p48
tp49
a(Vhttp://www.51rouwen.net/book/7165/762396.html
p50
V\u5206\u5377\u9605\u8bfb13
p51
tp52
a(Vhttp://www.51rouwen.net/book/7165/762397.html
p53
V\u5206\u5377\u9605\u8bfb14
p54
tp55
a(Vhttp://www.51rouwen.net/book/7165/762398.html
p56
V\u5206\u5377\u9605\u8bfb15
p57
tp58
a(Vhttp://www.51rouwen.net/book/7165/762399.html
p59
V\u5206\u5377\u9605\u8bfb16
p60
tp61
a(Vhttp://www.51rouwen.net/book/7165/762400.html
p62
V\u5206\u5377\u9605\u8bfb17
p63
tp64
a(Vhttp://www.51rouwen.net/book/7165/762401.html
p65
V\u5206\u5377\u9605\u8bfb18
p66
tp67
a(Vhttp://www.51rouwen.net/book/7165/762402.html
p68
V\u5206\u5377\u9605\u8bfb19
p69
tp70
a(Vhttp://www.51rouwen.net/book/7165/762403.html
p71
V\u5206\u5377\u9605\u8bfb20
p72
tp73
a(Vhttp://www.51rouwen.net/book/7165/762404.html
p74
V\u5206\u5377\u9605\u8bfb21
p75
tp76
a(Vhttp://www.51rouwen.net/book/7165/762405.html
p77
V\u5206\u5377\u9605\u8bfb22
p78
tp79
a(Vhttp://www.51rouwen.net/book/7165/762406.html
p80
V\u5206\u5377\u9605\u8bfb23
p81
tp82
a(Vhttp://www.51rouwen.net/book/7165/762407.html
p83
V\u5206\u5377\u9605\u8bfb24
p84
tp85
a(Vhttp://www.51rouwen.net/book/7165/762408.html
p86
V\u5206\u5377\u9605\u8bfb25
p87
tp88
a(Vhttp://www.51rouwen.net/book/7165/762409.html
p89
V\u5206\u5377\u9605\u8bfb26
p90
tp91
a(Vhttp://www.51rouwen.net/book/7165/762410.html
p92
V\u5206\u5377\u9605\u8bfb27
p93
tp94
a(Vhttp://www.51rouwen.net/book/7165/762411.html
p95
V\u5206\u5377\u9605\u8bfb28
p96
tp97
a(Vhttp://www.51rouwen.net/book/7165/762412.html
p98
V\u5206\u5377\u9605\u8bfb29
p99
tp100
a(Vhttp://www.51rouwen.net/book/7165/762413.html
p101
V\u5206\u5377\u9605\u8bfb30
p102
tp103
a(Vhttp://www.51rouwen.net/book/7165/762414.html
p104
V\u5206\u5377\u9605\u8bfb31
p105
tp106
a(Vhttp://www.51rouwen.net/book/7165/762415.html
p107
V\u5206\u5377\u9605\u8bfb32
p108
tp109
a(Vhttp://www.51rouwen.net/book/7165/762416.html
p110
V\u5206\u5377\u9605\u8bfb33
p111
tp112
a(Vhttp://www.51rouwen.net/book/7165/762417.html
p113
V\u5206\u5377\u9605\u8bfb34
p114
tp115
a(Vhttp://www.51rouwen.net/book/7165/762418.html
p116
V\u5206\u5377\u9605\u8bfb35
p117
tp118
a(Vhttp://www.51rouwen.net/book/7165/762419.html
p119
V\u5206\u5377\u9605\u8bfb36
p120
tp121
a(Vhttp://www.51rouwen.net/book/7165/762420.html
p122
V\u5206\u5377\u9605\u8bfb37
p123
tp124
a(Vhttp://www.51rouwen.net/book/7165/762421.html
p125
V\u5206\u5377\u9605\u8bfb38
p126
tp127
a(Vhttp://www.51rouwen.net/book/7165/762422.html
p128
V\u5206\u5377\u9605\u8bfb39
p129
tp130
a(Vhttp://www.51rouwen.net/book/7165/762423.html
p131
V\u5206\u5377\u9605\u8bfb40
p132
tp133
a(Vhttp://www.51rouwen.net/book/7165/762424.html
p134
V\u5206\u5377\u9605\u8bfb41
p135
tp136
a(Vhttp://www.51rouwen.net/book/7165/762425.html
p137
V\u5206\u5377\u9605\u8bfb42
p138
tp139
a(Vhttp://www.51rouwen.net/book/7165/762426.html
p140
V\u5206\u5377\u9605\u8bfb43
p141
tp142
a(Vhttp://www.51rouwen.net/book/7165/762427.html
p143
V\u5206\u5377\u9605\u8bfb44
p144
tp145
a(Vhttp://www.51rouwen.net/book/7165/762428.html
p146
V\u5206\u5377\u9605\u8bfb45
p147
tp148
a(Vhttp://www.51rouwen.net/book/7165/762429.html
p149
V\u5206\u5377\u9605\u8bfb46
p150
tp151
a(Vhttp://www.51rouwen.net/book/7165/762430.html
p152
V\u5206\u5377\u9605\u8bfb47
p153
tp154
a(Vhttp://www.51rouwen.net/book/7165/762431.html
p155
V\u5206\u5377\u9605\u8bfb48
p156
tp157
a(Vhttp://www.51rouwen.net/book/7165/762432.html
p158
V\u5206\u5377\u9605\u8bfb49
p159
tp160
a(Vhttp://www.51rouwen.net/book/7165/762433.html
p161
V\u5206\u5377\u9605\u8bfb50
p162
tp163
a(Vhttp://www.51rouwen.net/book/7165/762434.html
p164
V\u5206\u5377\u9605\u8bfb51
p165
tp166
a(Vhttp://www.51rouwen.net/book/7165/762435.html
p167
V\u5206\u5377\u9605\u8bfb52
p168
tp169
a(Vhttp://www.51rouwen.net/book/7165/762436.html
p170
V\u5206\u5377\u9605\u8bfb53
p171
tp172
a(Vhttp://www.51rouwen.net/book/7165.html
p173
V\u7f8e\u4eba\u53d7\u8fb1\u8bb0(H)
p174
tp175
asS'link_xpath'
p176
V/html/body/div[1]/ul/li/a
p177
sS'content_xpath'
p178
V//*[@id="nr1"]
p179
sb.